target datalayout = "e-m:e-p270:32:32-p271:32:32-p272:64:64-i64:64-i128:128-f80:128-n8:16:32:64-S128"
target triple = "x86_64-pc-linux-gnu"

%struct._php_core_globals = type { i64, i8, i8, i8, i8, i8, i8, i8, i8, ptr, ptr, i64, i64, i64, ptr, ptr, ptr, ptr, ptr, i8, ptr, ptr, ptr, ptr, i64, ptr, ptr, ptr, ptr, ptr, ptr, ptr, %struct._arg_separators, ptr, %struct._zend_array, i16, i8, i8, %struct._zend_llist, [6 x %struct._zval_struct], i8, i8, i8, i8, i8, ptr, ptr, i64, [8 x i8], i8, i8, i8, i8, i8, i8, i32, i32, ptr, ptr, ptr, ptr, i64, i64, ptr, i64, ptr, ptr, i8, i8, i8, i8, i8, i8, i64, ptr, i64, i64 }
%struct._arg_separators = type { ptr, ptr }
%struct._zend_array = type { %struct._zend_refcounted_h, %union.anon.0, i32, %union.anon.1, i32, i32, i32, i32, i64, ptr }
%struct._zend_refcounted_h = type { i32, %union.anon }
%union.anon = type { i32 }
%union.anon.0 = type { i32 }
%union.anon.1 = type { ptr }
%struct._zend_llist = type { ptr, ptr, i64, i64, ptr, i8, ptr }
%struct._zval_struct = type { %union._zend_value, %union.anon.3, %union.anon.6 }
%union._zend_value = type { i64 }
%union.anon.3 = type { i32 }
%union.anon.6 = type { i32 }
%struct._zend_string = type { %struct._zend_refcounted_h, i64, i64, [1 x i8] }

@core_globals = dso_local global %struct._php_core_globals zeroinitializer, align 8
@.str.279 = private unnamed_addr constant [8 x i8] c"no-ctrl\00", align 1
@.str.330 = private unnamed_addr constant [4 x i8] c"all\00", align 1
@.str.331 = private unnamed_addr constant [6 x i8] c"ascii\00", align 1
@.str.332 = private unnamed_addr constant [4 x i8] c"raw\00", align 1

; Function Attrs: alwaysinline nounwind uwtable
define internal zeroext i1 @zend_string_equals_cstr(ptr noundef %0, ptr noundef %1, i64 noundef %2) #5 {
  %4 = alloca ptr, align 8
  %5 = alloca ptr, align 8
  %6 = alloca i64, align 8
  store ptr %0, ptr %4, align 8, !tbaa !54
  store ptr %1, ptr %5, align 8, !tbaa !14
  store i64 %2, ptr %6, align 8, !tbaa !15
  %7 = load ptr, ptr %4, align 8, !tbaa !54
  %8 = getelementptr inbounds nuw %struct._zend_string, ptr %7, i32 0, i32 2
  %9 = load i64, ptr %8, align 8, !tbaa !60
  %10 = load i64, ptr %6, align 8, !tbaa !15
  %11 = icmp eq i64 %9, %10
  br i1 %11, label %12, label %21

12:                                               ; preds = %3
  %13 = load ptr, ptr %4, align 8, !tbaa !54
  %14 = getelementptr inbounds nuw %struct._zend_string, ptr %13, i32 0, i32 3
  %15 = getelementptr inbounds [1 x i8], ptr %14, i64 0, i64 0
  %16 = load ptr, ptr %5, align 8, !tbaa !14
  %17 = load i64, ptr %6, align 8, !tbaa !15
  %18 = call i32 @memcmp(ptr noundef %15, ptr noundef %16, i64 noundef %17) #19
  %19 = icmp ne i32 %18, 0
  %20 = xor i1 %19, true
  br label %21

21:                                               ; preds = %12, %3
  %22 = phi i1 [ false, %3 ], [ %20, %12 ]
  ret i1 %22
}

; Function Attrs: nounwind uwtable
define internal i32 @OnSetLogFilter(ptr noundef %0, ptr noundef %1, ptr noundef %2, ptr noundef %3, ptr noundef %4, i32 noundef %5) #1 {
  %7 = alloca i32, align 4
  %8 = alloca ptr, align 8
  %9 = alloca ptr, align 8
  %10 = alloca ptr, align 8
  %11 = alloca ptr, align 8
  %12 = alloca ptr, align 8
  %13 = alloca i32, align 4
  %14 = alloca ptr, align 8
  %15 = alloca i32, align 4
  store ptr %0, ptr %8, align 8, !tbaa !243
  store ptr %1, ptr %9, align 8, !tbaa !54
  store ptr %2, ptr %10, align 8, !tbaa !56
  store ptr %3, ptr %11, align 8, !tbaa !56
  store ptr %4, ptr %12, align 8, !tbaa !56
  store i32 %5, ptr %13, align 4, !tbaa !50
  call void @llvm.lifetime.start.p0(i64 8, ptr %14) #18
  %16 = load ptr, ptr %9, align 8, !tbaa !54
  store ptr %16, ptr %14, align 8, !tbaa !54
  %17 = load ptr, ptr %14, align 8, !tbaa !54
  %18 = call zeroext i1 @zend_string_equals_cstr(ptr noundef %17, ptr noundef @.str.330, i64 noundef 3)
  br i1 %18, label %19, label %20

19:                                               ; preds = %6
  store i64 0, ptr getelementptr inbounds nuw (%struct._php_core_globals, ptr @core_globals, i32 0, i32 75), align 8, !tbaa !253
  store i32 0, ptr %7, align 4
  store i32 1, ptr %15, align 4
  br label %33

20:                                               ; preds = %6
  %21 = load ptr, ptr %14, align 8, !tbaa !54
  %22 = call zeroext i1 @zend_string_equals_cstr(ptr noundef %21, ptr noundef @.str.279, i64 noundef 7)
  br i1 %22, label %23, label %24

23:                                               ; preds = %20
  store i64 1, ptr getelementptr inbounds nuw (%struct._php_core_globals, ptr @core_globals, i32 0, i32 75), align 8, !tbaa !253
  store i32 0, ptr %7, align 4
  store i32 1, ptr %15, align 4
  br label %33

24:                                               ; preds = %20
  %25 = load ptr, ptr %14, align 8, !tbaa !54
  %26 = call zeroext i1 @zend_string_equals_cstr(ptr noundef %25, ptr noundef @.str.331, i64 noundef 5)
  br i1 %26, label %27, label %28

27:                                               ; preds = %24
  store i64 2, ptr getelementptr inbounds nuw (%struct._php_core_globals, ptr @core_globals, i32 0, i32 75), align 8, !tbaa !253
  store i32 0, ptr %7, align 4
  store i32 1, ptr %15, align 4
  br label %33

28:                                               ; preds = %24
  %29 = load ptr, ptr %14, align 8, !tbaa !54
  %30 = call zeroext i1 @zend_string_equals_cstr(ptr noundef %29, ptr noundef @.str.332, i64 noundef 3)
  br i1 %30, label %31, label %32

31:                                               ; preds = %28
  store i64 3, ptr getelementptr inbounds nuw (%struct._php_core_globals, ptr @core_globals, i32 0, i32 75), align 8, !tbaa !253
  store i32 0, ptr %7, align 4
  store i32 1, ptr %15, align 4
  br label %33

32:                                               ; preds = %28
  store i32 -1, ptr %7, align 4
  store i32 1, ptr %15, align 4
  br label %33

33:                                               ; preds = %32, %31, %27, %23, %19
  call void @llvm.lifetime.end.p0(i64 8, ptr %14) #18
  %34 = load i32, ptr %7, align 4
  ret i32 %34
}