; Function Attrs: mustprogress nofree nounwind willreturn memory(write, argmem: read, inaccessiblemem: none) uwtable
define internal range(i32 -1, 1) i32 @OnSetLogFilter(ptr readnone captures(none) %0, ptr noundef readonly captures(none) %1, ptr readnone captures(none) %2, ptr readnone captures(none) %3, ptr readnone captures(none) %4, i32 %5) #24 {
  %7 = getelementptr inbounds nuw i8, ptr %1, i64 16
  %8 = load i64, ptr %7, align 8, !tbaa !52
  switch i64 %8, label %zend_string_equals_cstr.exit.thread [
    i64 3, label %zend_string_equals_cstr.exit13
    i64 7, label %zend_string_equals_cstr.exit10
    i64 5, label %zend_string_equals_cstr.exit7
  ]

zend_string_equals_cstr.exit13:                   ; preds = %6
  %9 = getelementptr inbounds nuw i8, ptr %1, i64 24
  %bcmp.i11 = tail call i32 @bcmp(ptr noundef nonnull dereferenceable(3) %9, ptr noundef nonnull dereferenceable(3) @.str.330, i64 3)
  %.not.i12 = icmp eq i32 %bcmp.i11, 0
  br i1 %.not.i12, label %zend_string_equals_cstr.exit.thread.sink.split, label %zend_string_equals_cstr.exit

zend_string_equals_cstr.exit10:                   ; preds = %6
  %10 = getelementptr inbounds nuw i8, ptr %1, i64 24
  %bcmp.i8 = tail call i32 @bcmp(ptr noundef nonnull dereferenceable(7) %10, ptr noundef nonnull dereferenceable(7) @.str.279, i64 7)
  %.not.i9 = icmp eq i32 %bcmp.i8, 0
  br i1 %.not.i9, label %zend_string_equals_cstr.exit.thread.sink.split, label %zend_string_equals_cstr.exit.thread

zend_string_equals_cstr.exit7:                    ; preds = %6
  %11 = getelementptr inbounds nuw i8, ptr %1, i64 24
  %bcmp.i5 = tail call i32 @bcmp(ptr noundef nonnull dereferenceable(5) %11, ptr noundef nonnull dereferenceable(5) @.str.331, i64 5)
  %.not.i6 = icmp eq i32 %bcmp.i5, 0
  br i1 %.not.i6, label %zend_string_equals_cstr.exit.thread.sink.split, label %zend_string_equals_cstr.exit.thread

zend_string_equals_cstr.exit:                     ; preds = %zend_string_equals_cstr.exit13
  %bcmp.i = tail call i32 @bcmp(ptr noundef nonnull dereferenceable(3) %9, ptr noundef nonnull dereferenceable(3) @.str.332, i64 3)
  %.not.i = icmp eq i32 %bcmp.i, 0
  br i1 %.not.i, label %zend_string_equals_cstr.exit.thread.sink.split, label %zend_string_equals_cstr.exit.thread

zend_string_equals_cstr.exit.thread.sink.split:   ; preds = %zend_string_equals_cstr.exit, %zend_string_equals_cstr.exit7, %zend_string_equals_cstr.exit10, %zend_string_equals_cstr.exit13
  %.sink = phi i64 [ 0, %zend_string_equals_cstr.exit13 ], [ 1, %zend_string_equals_cstr.exit10 ], [ 2, %zend_string_equals_cstr.exit7 ], [ 3, %zend_string_equals_cstr.exit ]
  store i64 %.sink, ptr getelementptr inbounds nuw (i8, ptr @core_globals, i64 600), align 8, !tbaa !221
  br label %zend_string_equals_cstr.exit.thread

zend_string_equals_cstr.exit.thread:              ; preds = %zend_string_equals_cstr.exit.thread.sink.split, %6, %zend_string_equals_cstr.exit10, %zend_string_equals_cstr.exit7, %zend_string_equals_cstr.exit
  %.0 = phi i32 [ -1, %zend_string_equals_cstr.exit ], [ -1, %zend_string_equals_cstr.exit7 ], [ -1, %zend_string_equals_cstr.exit10 ], [ -1, %6 ], [ 0, %zend_string_equals_cstr.exit.thread.sink.split ]
  ret i32 %.0
}